target datalayout = "e-m:e-p270:32:32-p271:32:32-p272:64:64-i64:64-i128:128-f80:128-n8:16:32:64-S128"
target triple = "x86_64-pc-linux-gnu"

%struct.dt_lib_module_t = type { %struct.dt_action_t, ptr, ptr, ptr, ptr, ptr, ptr, ptr, ptr, ptr, ptr, ptr, ptr, ptr, ptr, ptr, ptr, ptr, ptr, ptr, ptr, ptr, ptr, ptr, ptr, ptr, ptr, ptr, ptr, ptr, ptr, [128 x i8], ptr, ptr, i32, ptr, ptr, ptr, i32 }
%struct.dt_action_t = type { i32, ptr, ptr, ptr, ptr, ptr }
%struct.dt_lib_t = type { ptr, ptr, %struct.anon }
%struct.anon = type { %struct.anon.0, %struct.anon.1, %struct.anon.2, %struct.anon.3 }
%struct.anon.0 = type { ptr, ptr, ptr, ptr, ptr, i32, i32, i32, ptr, ptr, ptr, ptr, ptr }
%struct.anon.1 = type { ptr, ptr, i32 }
%struct.anon.2 = type { ptr }
%struct.anon.3 = type { i32 }
%struct._GList = type { ptr, ptr, ptr }

; Function Attrs: nounwind uwtable
define internal void @_preferences_changed(ptr noundef %0, ptr noundef %1) #0 {
  %3 = alloca ptr, align 8
  %4 = alloca ptr, align 8
  %5 = alloca ptr, align 8
  %6 = alloca ptr, align 8
  %7 = alloca ptr, align 8
  store ptr %0, ptr %3, align 8, !tbaa !76
  store ptr %1, ptr %4, align 8, !tbaa !76
  call void @llvm.lifetime.start.p0(i64 8, ptr %5) #12
  %8 = load ptr, ptr %4, align 8, !tbaa !76
  store ptr %8, ptr %5, align 8, !tbaa !181
  call void @llvm.lifetime.start.p0(i64 8, ptr %6) #12
  %9 = load ptr, ptr %5, align 8, !tbaa !181
  %10 = getelementptr inbounds nuw %struct.dt_lib_t, ptr %9, i32 0, i32 0
  %11 = load ptr, ptr %10, align 8, !tbaa !80
  store ptr %11, ptr %6, align 8, !tbaa !89
  br label %12

12:                                               ; preds = %33, %2
  %13 = load ptr, ptr %6, align 8, !tbaa !89
  %14 = icmp ne ptr %13, null
  br i1 %14, label %15, label %35

15:                                               ; preds = %12
  call void @llvm.lifetime.start.p0(i64 8, ptr %7) #12
  %16 = load ptr, ptr %6, align 8, !tbaa !89
  %17 = getelementptr inbounds nuw %struct._GList, ptr %16, i32 0, i32 0
  %18 = load ptr, ptr %17, align 8, !tbaa !90
  store ptr %18, ptr %7, align 8, !tbaa !6
  %19 = load ptr, ptr %7, align 8, !tbaa !6
  %20 = getelementptr inbounds nuw %struct.dt_lib_module_t, ptr %19, i32 0, i32 38
  %21 = load i32, ptr %20, align 8, !tbaa !203
  %22 = icmp ne i32 %21, 0
  br i1 %22, label %23, label %25

23:                                               ; preds = %15
  %24 = load ptr, ptr %7, align 8, !tbaa !6
  call void @dt_lib_init_presets(ptr noundef %24)
  br label %25

25:                                               ; preds = %23, %15
  %26 = load ptr, ptr %6, align 8, !tbaa !89
  %27 = icmp ne ptr %26, null
  br i1 %27, label %28, label %32

28:                                               ; preds = %25
  %29 = load ptr, ptr %6, align 8, !tbaa !89
  %30 = getelementptr inbounds nuw %struct._GList, ptr %29, i32 0, i32 1
  %31 = load ptr, ptr %30, align 8, !tbaa !93
  br label %33

32:                                               ; preds = %25
  br label %33

33:                                               ; preds = %32, %28
  %34 = phi ptr [ %31, %28 ], [ null, %32 ]
  store ptr %34, ptr %6, align 8, !tbaa !89
  call void @llvm.lifetime.end.p0(i64 8, ptr %7) #12
  br label %12

35:                                               ; preds = %12
  call void @llvm.lifetime.end.p0(i64 8, ptr %6) #12
  call void @llvm.lifetime.end.p0(i64 8, ptr %5) #12
  ret void
}