; Function Attrs: nounwind uwtable
define internal void @_preferences_changed(ptr readnone captures(none) %0, ptr noundef readonly captures(none) %1) #0 {
  %.09 = load ptr, ptr %1, align 8, !tbaa !72
  %.not10 = icmp eq ptr %.09, null
  br i1 %.not10, label %._crit_edge, label %.lr.ph

.lr.ph:                                           ; preds = %2, %7
  %.011 = phi ptr [ %.0, %7 ], [ %.09, %2 ]
  %3 = load ptr, ptr %.011, align 8, !tbaa !73
  %4 = getelementptr inbounds nuw i8, ptr %3, i64 464
  %5 = load i32, ptr %4, align 8, !tbaa !169
  %.not8 = icmp eq i32 %5, 0
  br i1 %.not8, label %7, label %6

6:                                                ; preds = %.lr.ph
  tail call void @dt_lib_init_presets(ptr noundef nonnull %3)
  br label %7

7:                                                ; preds = %6, %.lr.ph
  %8 = getelementptr inbounds nuw i8, ptr %.011, i64 8
  %.0 = load ptr, ptr %8, align 8, !tbaa !72
  %.not = icmp eq ptr %.0, null
  br i1 %.not, label %._crit_edge, label %.lr.ph

._crit_edge:                                      ; preds = %7, %2
  ret void
}